; Function Attrs: mustprogress uwtable
define noundef ptr @_ZN6icu_7712RegexMatcher12replaceFirstEP5UTextS2_R10UErrorCode(ptr noundef nonnull align 8 dereferenceable(336) %0, ptr noundef %1, ptr noundef %2, ptr noundef nonnull align 4 dereferenceable(4) %3) unnamed_addr #1 align 2 personality ptr @__gxx_personality_v0 {
  %5 = alloca i32, align 4
  %6 = alloca %"class.icu_77::UnicodeString", align 8
  %7 = alloca %struct.UText, align 8
  %8 = load i32, ptr %3, align 4, !tbaa !13
  %9 = icmp slt i32 %8, 1
  br i1 %9, label %10, label %51

10:                                               ; preds = %4
  %11 = getelementptr inbounds nuw i8, ptr %0, i64 316
  %12 = load i32, ptr %11, align 4, !tbaa !39
  %13 = icmp slt i32 %12, 1
  br i1 %13, label %_ZN6icu_7712RegexMatcher4findEv.exit, label %14

14:                                               ; preds = %10
  store i32 %12, ptr %3, align 4, !tbaa !13
  br label %51

_ZN6icu_7712RegexMatcher4findEv.exit:             ; preds = %10
  %15 = getelementptr inbounds nuw i8, ptr %0, i64 64
  store i64 0, ptr %15, align 8, !tbaa !65
  %16 = getelementptr inbounds nuw i8, ptr %0, i64 48
  %17 = load i64, ptr %16, align 8, !tbaa !66
  %18 = getelementptr inbounds nuw i8, ptr %0, i64 72
  store i64 %17, ptr %18, align 8, !tbaa !67
  %19 = getelementptr inbounds nuw i8, ptr %0, i64 112
  store i64 0, ptr %19, align 8, !tbaa !68
  %20 = getelementptr inbounds nuw i8, ptr %0, i64 120
  store i64 %17, ptr %20, align 8, !tbaa !69
  %21 = getelementptr inbounds nuw i8, ptr %0, i64 80
  store i64 0, ptr %21, align 8, !tbaa !70
  %22 = getelementptr inbounds nuw i8, ptr %0, i64 88
  store i64 %17, ptr %22, align 8, !tbaa !71
  %23 = getelementptr inbounds nuw i8, ptr %0, i64 96
  store i64 0, ptr %23, align 8, !tbaa !72
  %24 = getelementptr inbounds nuw i8, ptr %0, i64 104
  store i64 %17, ptr %24, align 8, !tbaa !73
  %25 = getelementptr inbounds nuw i8, ptr %0, i64 136
  %26 = getelementptr inbounds nuw i8, ptr %0, i64 152
  tail call void @llvm.memset.p0.i64(ptr noundef nonnull align 8 dereferenceable(16) %25, i8 0, i64 16, i1 false)
  store i64 -1, ptr %26, align 8, !tbaa !30
  %27 = getelementptr inbounds nuw i8, ptr %0, i64 160
  store i64 0, ptr %27, align 8, !tbaa !31
  %28 = getelementptr inbounds nuw i8, ptr %0, i64 130
  store i8 0, ptr %28, align 2, !tbaa !29
  %29 = getelementptr inbounds nuw i8, ptr %0, i64 168
  store i8 0, ptr %29, align 8, !tbaa !32
  %30 = getelementptr inbounds nuw i8, ptr %0, i64 169
  store i8 0, ptr %30, align 1, !tbaa !33
  %31 = getelementptr inbounds nuw i8, ptr %0, i64 268
  store i32 0, ptr %31, align 4, !tbaa !35
  %32 = getelementptr inbounds nuw i8, ptr %0, i64 272
  store i32 10000, ptr %32, align 8, !tbaa !36
  call void @llvm.lifetime.start.p0(i64 4, ptr nonnull %5) #21
  store i32 0, ptr %5, align 4, !tbaa !13
  %33 = call noundef signext i8 @_ZN6icu_7712RegexMatcher4findER10UErrorCode(ptr noundef nonnull align 8 dereferenceable(336) %0, ptr noundef nonnull align 4 dereferenceable(4) %5)
  call void @llvm.lifetime.end.p0(i64 4, ptr nonnull %5) #21
  %.not21 = icmp eq i8 %33, 0
  br i1 %.not21, label %_ZN6icu_7712RegexMatcher4findEv.exit.thread, label %35

_ZN6icu_7712RegexMatcher4findEv.exit.thread:      ; preds = %_ZN6icu_7712RegexMatcher4findEv.exit
  %34 = call noundef ptr @_ZNK6icu_7712RegexMatcher8getInputEP5UTextR10UErrorCode(ptr noundef nonnull align 8 dereferenceable(336) %0, ptr noundef %2, ptr noundef nonnull align 4 dereferenceable(4) %3)
  br label %51

35:                                               ; preds = %_ZN6icu_7712RegexMatcher4findEv.exit
  %36 = icmp eq ptr %2, null
  br i1 %36, label %37, label %48

37:                                               ; preds = %35
  call void @llvm.lifetime.start.p0(i64 64, ptr nonnull %6) #21
  store ptr getelementptr inbounds nuw inrange(-16, 88) (i8, ptr @_ZTVN6icu_7713UnicodeStringE, i64 16), ptr %6, align 8, !tbaa !15
  %38 = getelementptr inbounds nuw i8, ptr %6, i64 8
  store i16 2, ptr %38, align 8, !tbaa !100
  call void @llvm.lifetime.start.p0(i64 144, ptr nonnull %7) #21
  call void @llvm.memset.p0.i64(ptr noundef nonnull align 8 dereferenceable(144) %7, i8 0, i64 144, i1 false)
  store i32 878368812, ptr %7, align 8
  %39 = getelementptr inbounds nuw i8, ptr %7, i64 12
  store i32 144, ptr %39, align 4
  %40 = invoke ptr @utext_openUnicodeString_77(ptr noundef nonnull %7, ptr noundef nonnull %6, ptr noundef nonnull %3)
          to label %41 unwind label %46

41:                                               ; preds = %37
  %42 = invoke ptr @utext_clone_77(ptr noundef null, ptr noundef nonnull %7, i8 noundef signext 1, i8 noundef signext 0, ptr noundef nonnull %3)
          to label %43 unwind label %46

43:                                               ; preds = %41
  %44 = invoke ptr @utext_close_77(ptr noundef nonnull %7)
          to label %45 unwind label %46

45:                                               ; preds = %43
  call void @llvm.lifetime.end.p0(i64 144, ptr nonnull %7) #21
  call void @_ZN6icu_7713UnicodeStringD1Ev(ptr noundef nonnull align 8 dereferenceable(64) %6) #21
  call void @llvm.lifetime.end.p0(i64 64, ptr nonnull %6) #21
  br label %48

46:                                               ; preds = %43, %41, %37
  %47 = landingpad { ptr, i32 }
          cleanup
  call void @llvm.lifetime.end.p0(i64 144, ptr nonnull %7) #21
  call void @_ZN6icu_7713UnicodeStringD1Ev(ptr noundef nonnull align 8 dereferenceable(64) %6) #21
  call void @llvm.lifetime.end.p0(i64 64, ptr nonnull %6) #21
  resume { ptr, i32 } %47

48:                                               ; preds = %45, %35
  %.018 = phi ptr [ %42, %45 ], [ %2, %35 ]
  %49 = call noundef nonnull align 8 dereferenceable(336) ptr @_ZN6icu_7712RegexMatcher17appendReplacementEP5UTextS2_R10UErrorCode(ptr noundef nonnull align 8 dereferenceable(336) %0, ptr noundef %.018, ptr noundef %1, ptr noundef nonnull align 4 dereferenceable(4) %3)
  %50 = call noundef ptr @_ZN6icu_7712RegexMatcher10appendTailEP5UTextR10UErrorCode(ptr noundef nonnull align 8 dereferenceable(336) %0, ptr noundef %.018, ptr noundef nonnull align 4 dereferenceable(4) %3)
  br label %51

51:                                               ; preds = %4, %48, %_ZN6icu_7712RegexMatcher4findEv.exit.thread, %14
  %.0 = phi ptr [ %2, %14 ], [ %.018, %48 ], [ %34, %_ZN6icu_7712RegexMatcher4findEv.exit.thread ], [ %2, %4 ]
  ret ptr %.0
}